; Function Attrs: nounwind uwtable
define ptr @l_Array_foldlMUnsafe_fold___at_Lean_Compiler_LCNF_Closure_run___spec__2___at_Lean_Compiler_LCNF_Closure_run___spec__3(ptr noundef %0, ptr noundef readonly captures(none) %1, i64 noundef %2, i64 noundef %3, ptr noundef %4) local_unnamed_addr #1 {
  %.not46 = icmp eq i64 %2, %3
  br i1 %.not46, label %._crit_edge, label %.lr.ph

.lr.ph:                                           ; preds = %5
  %6 = getelementptr inbounds nuw i8, ptr %1, i64 24
  br label %7

7:                                                ; preds = %.lr.ph, %lean_dec.exit
  %.02348 = phi i64 [ %2, %.lr.ph ], [ %19, %lean_dec.exit ]
  %.02547 = phi ptr [ %4, %.lr.ph ], [ %.227, %lean_dec.exit ]
  %8 = getelementptr inbounds nuw [0 x ptr], ptr %6, i64 0, i64 %.02348
  %9 = load ptr, ptr %8, align 8, !tbaa !9
  %10 = ptrtoint ptr %9 to i64
  %11 = and i64 %10, 1
  %.not.i34 = icmp eq i64 %11, 0
  br i1 %.not.i34, label %12, label %lean_array_uget.exit

12:                                               ; preds = %7
  %.val.i.i = load i32, ptr %9, align 4, !tbaa !4
  %13 = icmp sgt i32 %.val.i.i, 0
  br i1 %13, label %14, label %16, !prof !11

14:                                               ; preds = %12
  %15 = add nuw i32 %.val.i.i, 1
  store i32 %15, ptr %9, align 4, !tbaa !4
  br label %lean_array_uget.exit

16:                                               ; preds = %12
  %.not.i.i = icmp eq i32 %.val.i.i, 0
  br i1 %.not.i.i, label %lean_array_uget.exit, label %17

17:                                               ; preds = %16
  tail call void @lean_inc_ref_cold(ptr noundef nonnull %9) #4
  br label %lean_array_uget.exit

lean_array_uget.exit:                             ; preds = %7, %14, %16, %17
  %18 = tail call ptr @l_Lean_Compiler_LCNF_CodeDecl_fvarId(ptr noundef %9) #4
  %19 = add i64 %.02348, 1
  %20 = tail call ptr @l_Lean_RBNode_findCore___at___private_Lean_Meta_FunInfo_0__Lean_Meta_getFunInfoAux___spec__2(ptr noundef %0, ptr noundef %18) #4
  %21 = ptrtoint ptr %18 to i64
  %22 = and i64 %21, 1
  %.not44 = icmp eq i64 %22, 0
  br i1 %.not44, label %23, label %lean_dec.exit29

23:                                               ; preds = %lean_array_uget.exit
  %24 = load i32, ptr %18, align 4, !tbaa !4
  %25 = icmp sgt i32 %24, 1
  br i1 %25, label %26, label %28, !prof !11

26:                                               ; preds = %23
  %27 = add nsw i32 %24, -1
  store i32 %27, ptr %18, align 4, !tbaa !4
  br label %lean_dec.exit29

28:                                               ; preds = %23
  %.not.i = icmp eq i32 %24, 0
  br i1 %.not.i, label %lean_dec.exit29, label %29

29:                                               ; preds = %28
  tail call void @lean_dec_ref_cold(ptr noundef nonnull %18) #4
  br label %lean_dec.exit29

lean_dec.exit29:                                  ; preds = %29, %28, %26, %lean_array_uget.exit
  %30 = ptrtoint ptr %20 to i64
  %31 = and i64 %30, 1
  %.not.i35 = icmp eq i64 %31, 0
  br i1 %.not.i35, label %lean_obj_tag.exit.thread, label %lean_obj_tag.exit

lean_obj_tag.exit:                                ; preds = %lean_dec.exit29
  %32 = and i64 %30, 8589934590
  %33 = icmp eq i64 %32, 0
  br i1 %33, label %36, label %lean_dec.exit28

lean_obj_tag.exit.thread:                         ; preds = %lean_dec.exit29
  %34 = getelementptr i8, ptr %20, i64 4
  %.val.i = load i32, ptr %34, align 4
  %35 = icmp ult i32 %.val.i, 16777216
  br i1 %35, label %36, label %.thread

36:                                               ; preds = %lean_obj_tag.exit.thread, %lean_obj_tag.exit
  %37 = tail call ptr @lean_array_push(ptr noundef %.02547, ptr noundef %9) #4
  br label %lean_dec.exit

.thread:                                          ; preds = %lean_obj_tag.exit.thread
  %38 = load i32, ptr %20, align 4, !tbaa !4
  %39 = icmp sgt i32 %38, 1
  br i1 %39, label %40, label %42, !prof !11

40:                                               ; preds = %.thread
  %41 = add nsw i32 %38, -1
  store i32 %41, ptr %20, align 4, !tbaa !4
  br label %lean_dec.exit28

42:                                               ; preds = %.thread
  %.not.i30 = icmp eq i32 %38, 0
  br i1 %.not.i30, label %lean_dec.exit28, label %43

43:                                               ; preds = %42
  tail call void @lean_dec_ref_cold(ptr noundef nonnull %20) #4
  br label %lean_dec.exit28

lean_dec.exit28:                                  ; preds = %lean_obj_tag.exit, %43, %42, %40
  br i1 %.not.i34, label %44, label %lean_dec.exit

44:                                               ; preds = %lean_dec.exit28
  %45 = load i32, ptr %9, align 4, !tbaa !4
  %46 = icmp sgt i32 %45, 1
  br i1 %46, label %47, label %49, !prof !11

47:                                               ; preds = %44
  %48 = add nsw i32 %45, -1
  store i32 %48, ptr %9, align 4, !tbaa !4
  br label %lean_dec.exit

49:                                               ; preds = %44
  %.not.i32 = icmp eq i32 %45, 0
  br i1 %.not.i32, label %lean_dec.exit, label %50

50:                                               ; preds = %49
  tail call void @lean_dec_ref_cold(ptr noundef nonnull %9) #4
  br label %lean_dec.exit

lean_dec.exit:                                    ; preds = %lean_dec.exit28, %47, %49, %50, %36
  %.227 = phi ptr [ %37, %36 ], [ %.02547, %50 ], [ %.02547, %49 ], [ %.02547, %47 ], [ %.02547, %lean_dec.exit28 ]
  %.not = icmp eq i64 %19, %3
  br i1 %.not, label %._crit_edge, label %7

._crit_edge:                                      ; preds = %lean_dec.exit, %5
  %.025.lcssa = phi ptr [ %4, %5 ], [ %.227, %lean_dec.exit ]
  ret ptr %.025.lcssa
}